target datalayout = "e-m:e-p270:32:32-p271:32:32-p272:64:64-i64:64-i128:128-f80:128-n8:16:32:64-S128"
target triple = "x86_64-pc-linux-gnu"

%struct.Aig_Man_t_ = type { ptr, ptr, ptr, ptr, ptr, ptr, ptr, %struct.Aig_Obj_t_, i32, i32, i32, i32, i32, i32, [7 x i32], i32, ptr, i32, ptr, i32, ptr, i32, i32, i32, ptr, i32, i32, i32, i32, i32, ptr, ptr, i32, ptr, ptr, i32, ptr, ptr, i32, i32, i32, ptr, ptr, ptr, ptr, ptr, ptr, ptr, ptr, ptr, ptr, ptr, ptr, ptr, ptr, i32, ptr, ptr, ptr, ptr, i32, i64, i64, i64, ptr, ptr }
%struct.Aig_Obj_t_ = type { %union.anon, ptr, ptr, i64, i32, i32, %union.anon.0 }
%union.anon = type { ptr }
%union.anon.0 = type { ptr }
%struct.timespec = type { i64, i64 }

@.str.1 = private unnamed_addr constant [5 x i8] c"Time\00", align 1
@.str.3 = private unnamed_addr constant [5 x i8] c"%s =\00", align 1
@.str.4 = private unnamed_addr constant [11 x i8] c"%9.2f sec\0A\00", align 1
@stdout = external global ptr, align 8
@.str.14 = private unnamed_addr constant [60 x i8] c"Abc_CommandAbc8Cec(): Miters have different number of PIs.\0A\00", align 1
@.str.15 = private unnamed_addr constant [60 x i8] c"Abc_CommandAbc8Cec(): Miters have different number of POs.\0A\00", align 1
@.str.16 = private unnamed_addr constant [27 x i8] c"Networks are equivalent.  \00", align 1
@.str.17 = private unnamed_addr constant [31 x i8] c"Networks are NOT EQUIVALENT.  \00", align 1
@.str.18 = private unnamed_addr constant [26 x i8] c"Networks are UNDECIDED.  \00", align 1

; Function Attrs: inlinehint nounwind uwtable
define internal i32 @Aig_ManNodeNum(ptr noundef %0) #3 {
  %2 = alloca ptr, align 8
  store ptr %0, ptr %2, align 8, !tbaa !3
  %3 = load ptr, ptr %2, align 8, !tbaa !3
  %4 = getelementptr inbounds nuw %struct.Aig_Man_t_, ptr %3, i32 0, i32 14
  %5 = getelementptr inbounds [7 x i32], ptr %4, i64 0, i64 5
  %6 = load i32, ptr %5, align 4, !tbaa !10
  %7 = load ptr, ptr %2, align 8, !tbaa !3
  %8 = getelementptr inbounds nuw %struct.Aig_Man_t_, ptr %7, i32 0, i32 14
  %9 = getelementptr inbounds [7 x i32], ptr %8, i64 0, i64 6
  %10 = load i32, ptr %9, align 8, !tbaa !10
  %11 = add nsw i32 %6, %10
  ret i32 %11
}

; Function Attrs: inlinehint nounwind uwtable
define internal i32 @Aig_ManCoNum(ptr noundef %0) #3 {
  %2 = alloca ptr, align 8
  store ptr %0, ptr %2, align 8, !tbaa !3
  %3 = load ptr, ptr %2, align 8, !tbaa !3
  %4 = getelementptr inbounds nuw %struct.Aig_Man_t_, ptr %3, i32 0, i32 14
  %5 = getelementptr inbounds [7 x i32], ptr %4, i64 0, i64 3
  %6 = load i32, ptr %5, align 4, !tbaa !10
  ret i32 %6
}

; Function Attrs: inlinehint nounwind uwtable
define internal i32 @Aig_ManCiNum(ptr noundef %0) #3 {
  %2 = alloca ptr, align 8
  store ptr %0, ptr %2, align 8, !tbaa !3
  %3 = load ptr, ptr %2, align 8, !tbaa !3
  %4 = getelementptr inbounds nuw %struct.Aig_Man_t_, ptr %3, i32 0, i32 14
  %5 = getelementptr inbounds [7 x i32], ptr %4, i64 0, i64 2
  %6 = load i32, ptr %5, align 8, !tbaa !10
  ret i32 %6
}

; Function Attrs: inlinehint nounwind uwtable
define internal i64 @Abc_Clock() #3 {
  %1 = alloca i64, align 8
  %2 = alloca %struct.timespec, align 8
  %3 = alloca i32, align 4
  %4 = alloca i64, align 8
  call void @llvm.lifetime.start.p0(i64 16, ptr %2) #9
  %5 = call i32 @clock_gettime(i32 noundef 1, ptr noundef %2) #9
  %6 = icmp slt i32 %5, 0
  br i1 %6, label %7, label %8

7:                                                ; preds = %0
  store i64 -1, ptr %1, align 8
  store i32 1, ptr %3, align 4
  br label %19

8:                                                ; preds = %0
  call void @llvm.lifetime.start.p0(i64 8, ptr %4) #9
  %9 = getelementptr inbounds nuw %struct.timespec, ptr %2, i32 0, i32 0
  %10 = load i64, ptr %9, align 8, !tbaa !85
  %11 = mul nsw i64 %10, 1000000
  store i64 %11, ptr %4, align 8, !tbaa !8
  %12 = getelementptr inbounds nuw %struct.timespec, ptr %2, i32 0, i32 1
  %13 = load i64, ptr %12, align 8, !tbaa !87
  %14 = mul nsw i64 %13, 1000000
  %15 = sdiv i64 %14, 1000000000
  %16 = load i64, ptr %4, align 8, !tbaa !8
  %17 = add nsw i64 %16, %15
  store i64 %17, ptr %4, align 8, !tbaa !8
  %18 = load i64, ptr %4, align 8, !tbaa !8
  store i64 %18, ptr %1, align 8
  store i32 1, ptr %3, align 4
  call void @llvm.lifetime.end.p0(i64 8, ptr %4) #9
  br label %19

19:                                               ; preds = %8, %7
  call void @llvm.lifetime.end.p0(i64 16, ptr %2) #9
  %20 = load i64, ptr %1, align 8
  ret i64 %20
}

; Function Attrs: nounwind uwtable
define i32 @Fra_FraigCecTop(ptr noundef %0, ptr noundef %1, i32 noundef %2, i32 noundef %3, i32 noundef %4, i32 noundef %5) #0 {
  %7 = alloca i32, align 4
  %8 = alloca ptr, align 8
  %9 = alloca ptr, align 8
  %10 = alloca i32, align 4
  %11 = alloca i32, align 4
  %12 = alloca i32, align 4
  %13 = alloca i32, align 4
  %14 = alloca ptr, align 8
  %15 = alloca i32, align 4
  %16 = alloca i64, align 8
  %17 = alloca i32, align 4
  store ptr %0, ptr %8, align 8, !tbaa !3
  store ptr %1, ptr %9, align 8, !tbaa !3
  store i32 %2, ptr %10, align 4, !tbaa !10
  store i32 %3, ptr %11, align 4, !tbaa !10
  store i32 %4, ptr %12, align 4, !tbaa !10
  store i32 %5, ptr %13, align 4, !tbaa !10
  call void @llvm.lifetime.start.p0(i64 8, ptr %14) #9
  call void @llvm.lifetime.start.p0(i64 4, ptr %15) #9
  call void @llvm.lifetime.start.p0(i64 8, ptr %16) #9
  %18 = call i64 @Abc_Clock()
  store i64 %18, ptr %16, align 8, !tbaa !8
  %19 = load ptr, ptr %8, align 8, !tbaa !3
  %20 = call i32 @Aig_ManCiNum(ptr noundef %19)
  %21 = load ptr, ptr %8, align 8, !tbaa !3
  %22 = call i32 @Aig_ManCiNum(ptr noundef %21)
  %23 = icmp ne i32 %20, %22
  br i1 %23, label %24, label %26

24:                                               ; preds = %6
  %25 = call i32 (ptr, ...) @printf(ptr noundef @.str.14)
  store i32 0, ptr %7, align 4
  store i32 1, ptr %17, align 4
  br label %98

26:                                               ; preds = %6
  %27 = load ptr, ptr %8, align 8, !tbaa !3
  %28 = call i32 @Aig_ManCoNum(ptr noundef %27)
  %29 = load ptr, ptr %8, align 8, !tbaa !3
  %30 = call i32 @Aig_ManCoNum(ptr noundef %29)
  %31 = icmp ne i32 %28, %30
  br i1 %31, label %32, label %34

32:                                               ; preds = %26
  %33 = call i32 (ptr, ...) @printf(ptr noundef @.str.15)
  store i32 0, ptr %7, align 4
  store i32 1, ptr %17, align 4
  br label %98

34:                                               ; preds = %26
  %35 = load ptr, ptr %8, align 8, !tbaa !3
  %36 = call i32 @Aig_ManNodeNum(ptr noundef %35)
  %37 = load ptr, ptr %9, align 8, !tbaa !3
  %38 = call i32 @Aig_ManNodeNum(ptr noundef %37)
  %39 = icmp slt i32 %36, %38
  br i1 %39, label %40, label %44

40:                                               ; preds = %34
  %41 = load ptr, ptr %8, align 8, !tbaa !3
  store ptr %41, ptr %14, align 8, !tbaa !3
  %42 = load ptr, ptr %9, align 8, !tbaa !3
  store ptr %42, ptr %8, align 8, !tbaa !3
  %43 = load ptr, ptr %14, align 8, !tbaa !3
  store ptr %43, ptr %9, align 8, !tbaa !3
  br label %44

44:                                               ; preds = %40, %34
  %45 = load i32, ptr %11, align 4, !tbaa !10
  %46 = icmp ne i32 %45, 0
  br i1 %46, label %47, label %55

47:                                               ; preds = %44
  %48 = load ptr, ptr %8, align 8, !tbaa !3
  %49 = load ptr, ptr %9, align 8, !tbaa !3
  %50 = load i32, ptr %10, align 4, !tbaa !10
  %51 = load i32, ptr %11, align 4, !tbaa !10
  %52 = load i32, ptr %12, align 4, !tbaa !10
  %53 = load i32, ptr %13, align 4, !tbaa !10
  %54 = call i32 @Fra_FraigCecPartitioned(ptr noundef %48, ptr noundef %49, i32 noundef %50, i32 noundef %51, i32 noundef %52, i32 noundef %53)
  store i32 %54, ptr %15, align 4, !tbaa !10
  br label %63

55:                                               ; preds = %44
  %56 = load ptr, ptr %8, align 8, !tbaa !3
  %57 = load ptr, ptr %9, align 8, !tbaa !3
  %58 = load i32, ptr %10, align 4, !tbaa !10
  %59 = load ptr, ptr %8, align 8, !tbaa !3
  %60 = call i32 @Aig_ManCoNum(ptr noundef %59)
  %61 = load i32, ptr %13, align 4, !tbaa !10
  %62 = call i32 @Fra_FraigCecPartitioned(ptr noundef %56, ptr noundef %57, i32 noundef %58, i32 noundef %60, i32 noundef 0, i32 noundef %61)
  store i32 %62, ptr %15, align 4, !tbaa !10
  br label %63

63:                                               ; preds = %55, %47
  %64 = load i32, ptr %15, align 4, !tbaa !10
  %65 = icmp eq i32 %64, 1
  br i1 %65, label %66, label %74

66:                                               ; preds = %63
  %67 = call i32 (ptr, ...) @printf(ptr noundef @.str.16)
  call void (i32, ptr, ...) @Abc_Print(i32 noundef 1, ptr noundef @.str.3, ptr noundef @.str.1)
  %68 = call i64 @Abc_Clock()
  %69 = load i64, ptr %16, align 8, !tbaa !8
  %70 = sub nsw i64 %68, %69
  %71 = sitofp i64 %70 to double
  %72 = fmul double 1.000000e+00, %71
  %73 = fdiv double %72, 1.000000e+06
  call void (i32, ptr, ...) @Abc_Print(i32 noundef 1, ptr noundef @.str.4, double noundef %73)
  br label %94

74:                                               ; preds = %63
  %75 = load i32, ptr %15, align 4, !tbaa !10
  %76 = icmp eq i32 %75, 0
  br i1 %76, label %77, label %85

77:                                               ; preds = %74
  %78 = call i32 (ptr, ...) @printf(ptr noundef @.str.17)
  call void (i32, ptr, ...) @Abc_Print(i32 noundef 1, ptr noundef @.str.3, ptr noundef @.str.1)
  %79 = call i64 @Abc_Clock()
  %80 = load i64, ptr %16, align 8, !tbaa !8
  %81 = sub nsw i64 %79, %80
  %82 = sitofp i64 %81 to double
  %83 = fmul double 1.000000e+00, %82
  %84 = fdiv double %83, 1.000000e+06
  call void (i32, ptr, ...) @Abc_Print(i32 noundef 1, ptr noundef @.str.4, double noundef %84)
  br label %93

85:                                               ; preds = %74
  %86 = call i32 (ptr, ...) @printf(ptr noundef @.str.18)
  call void (i32, ptr, ...) @Abc_Print(i32 noundef 1, ptr noundef @.str.3, ptr noundef @.str.1)
  %87 = call i64 @Abc_Clock()
  %88 = load i64, ptr %16, align 8, !tbaa !8
  %89 = sub nsw i64 %87, %88
  %90 = sitofp i64 %89 to double
  %91 = fmul double 1.000000e+00, %90
  %92 = fdiv double %91, 1.000000e+06
  call void (i32, ptr, ...) @Abc_Print(i32 noundef 1, ptr noundef @.str.4, double noundef %92)
  br label %93

93:                                               ; preds = %85, %77
  br label %94

94:                                               ; preds = %93, %66
  %95 = load ptr, ptr @stdout, align 8, !tbaa !48
  %96 = call i32 @fflush(ptr noundef %95)
  %97 = load i32, ptr %15, align 4, !tbaa !10
  store i32 %97, ptr %7, align 4
  store i32 1, ptr %17, align 4
  br label %98

98:                                               ; preds = %94, %32, %24
  call void @llvm.lifetime.end.p0(i64 8, ptr %16) #9
  call void @llvm.lifetime.end.p0(i64 4, ptr %15) #9
  call void @llvm.lifetime.end.p0(i64 8, ptr %14) #9
  %99 = load i32, ptr %7, align 4
  ret i32 %99
}