; Function Attrs: nounwind uwtable
define noundef i32 @Fra_FraigCecTop(ptr noundef %0, ptr noundef %1, i32 noundef %2, i32 noundef %3, i32 noundef %4, i32 noundef %5) local_unnamed_addr #0 {
  %7 = alloca %struct.timespec, align 8
  %8 = alloca %struct.timespec, align 8
  %9 = alloca %struct.timespec, align 8
  %10 = alloca %struct.timespec, align 8
  call void @llvm.lifetime.start.p0(i64 16, ptr nonnull %10) #10
  %11 = call i32 @clock_gettime(i32 noundef 1, ptr noundef nonnull %10) #10
  %12 = icmp slt i32 %11, 0
  br i1 %12, label %17, label %13

13:                                               ; preds = %6
  %14 = load i64, ptr %10, align 8, !tbaa !3
  %.neg49 = mul i64 %14, -1000000
  %15 = getelementptr inbounds nuw i8, ptr %10, i64 8
  %16 = load i64, ptr %15, align 8, !tbaa !8
  %.neg = sdiv i64 %16, -1000
  %.neg50 = add i64 %.neg, %.neg49
  br label %17

17:                                               ; preds = %6, %13
  %.0.i.neg = phi i64 [ %.neg50, %13 ], [ 1, %6 ]
  call void @llvm.lifetime.end.p0(i64 16, ptr nonnull %10) #10
  %18 = getelementptr i8, ptr %0, i64 148
  %.val38 = load i32, ptr %18, align 4, !tbaa !24
  %19 = getelementptr i8, ptr %0, i64 152
  %.val39 = load i32, ptr %19, align 8, !tbaa !24
  %20 = add nsw i32 %.val39, %.val38
  %21 = getelementptr i8, ptr %1, i64 148
  %.val36 = load i32, ptr %21, align 4, !tbaa !24
  %22 = getelementptr i8, ptr %1, i64 152
  %.val37 = load i32, ptr %22, align 8, !tbaa !24
  %23 = add nsw i32 %.val37, %.val36
  %24 = icmp slt i32 %20, %23
  %spec.select = select i1 %24, ptr %0, ptr %1
  %spec.select34 = select i1 %24, ptr %1, ptr %0
  %.not32 = icmp eq i32 %3, 0
  br i1 %.not32, label %27, label %25

25:                                               ; preds = %17
  %26 = call i32 @Fra_FraigCecPartitioned(ptr noundef %spec.select34, ptr noundef %spec.select, i32 noundef %2, i32 noundef %3, i32 noundef %4, i32 noundef %5)
  br label %30

27:                                               ; preds = %17
  %28 = getelementptr i8, ptr %spec.select34, i64 140
  %spec.select34.val = load i32, ptr %28, align 4, !tbaa !24
  %29 = call i32 @Fra_FraigCecPartitioned(ptr noundef %spec.select34, ptr noundef %spec.select, i32 noundef %2, i32 noundef %spec.select34.val, i32 noundef 0, i32 noundef %5)
  br label %30

30:                                               ; preds = %27, %25
  %.027 = phi i32 [ %26, %25 ], [ %29, %27 ]
  switch i32 %.027, label %53 [
    i32 1, label %31
    i32 0, label %42
  ]

31:                                               ; preds = %30
  %32 = call i32 (ptr, ...) @printf(ptr noundef nonnull dereferenceable(1) @.str.16)
  call void (i32, ptr, ...) @Abc_Print(i32 poison, ptr noundef nonnull @.str.3, ptr noundef nonnull @.str.1)
  call void @llvm.lifetime.start.p0(i64 16, ptr nonnull %9) #10
  %33 = call i32 @clock_gettime(i32 noundef 1, ptr noundef nonnull %9) #10
  %34 = icmp slt i32 %33, 0
  br i1 %34, label %Abc_Clock.exit43, label %35

35:                                               ; preds = %31
  %36 = load i64, ptr %9, align 8, !tbaa !3
  %37 = mul nsw i64 %36, 1000000
  %38 = getelementptr inbounds nuw i8, ptr %9, i64 8
  %39 = load i64, ptr %38, align 8, !tbaa !8
  %40 = sdiv i64 %39, 1000
  %41 = add nsw i64 %40, %37
  br label %Abc_Clock.exit43

Abc_Clock.exit43:                                 ; preds = %31, %35
  %.0.i42 = phi i64 [ %41, %35 ], [ -1, %31 ]
  call void @llvm.lifetime.end.p0(i64 16, ptr nonnull %9) #10
  br label %64

42:                                               ; preds = %30
  %43 = call i32 (ptr, ...) @printf(ptr noundef nonnull dereferenceable(1) @.str.17)
  call void (i32, ptr, ...) @Abc_Print(i32 poison, ptr noundef nonnull @.str.3, ptr noundef nonnull @.str.1)
  call void @llvm.lifetime.start.p0(i64 16, ptr nonnull %8) #10
  %44 = call i32 @clock_gettime(i32 noundef 1, ptr noundef nonnull %8) #10
  %45 = icmp slt i32 %44, 0
  br i1 %45, label %Abc_Clock.exit45, label %46

46:                                               ; preds = %42
  %47 = load i64, ptr %8, align 8, !tbaa !3
  %48 = mul nsw i64 %47, 1000000
  %49 = getelementptr inbounds nuw i8, ptr %8, i64 8
  %50 = load i64, ptr %49, align 8, !tbaa !8
  %51 = sdiv i64 %50, 1000
  %52 = add nsw i64 %51, %48
  br label %Abc_Clock.exit45

Abc_Clock.exit45:                                 ; preds = %42, %46
  %.0.i44 = phi i64 [ %52, %46 ], [ -1, %42 ]
  call void @llvm.lifetime.end.p0(i64 16, ptr nonnull %8) #10
  br label %64

53:                                               ; preds = %30
  %54 = call i32 (ptr, ...) @printf(ptr noundef nonnull dereferenceable(1) @.str.18)
  call void (i32, ptr, ...) @Abc_Print(i32 poison, ptr noundef nonnull @.str.3, ptr noundef nonnull @.str.1)
  call void @llvm.lifetime.start.p0(i64 16, ptr nonnull %7) #10
  %55 = call i32 @clock_gettime(i32 noundef 1, ptr noundef nonnull %7) #10
  %56 = icmp slt i32 %55, 0
  br i1 %56, label %Abc_Clock.exit47, label %57

57:                                               ; preds = %53
  %58 = load i64, ptr %7, align 8, !tbaa !3
  %59 = mul nsw i64 %58, 1000000
  %60 = getelementptr inbounds nuw i8, ptr %7, i64 8
  %61 = load i64, ptr %60, align 8, !tbaa !8
  %62 = sdiv i64 %61, 1000
  %63 = add nsw i64 %62, %59
  br label %Abc_Clock.exit47

Abc_Clock.exit47:                                 ; preds = %53, %57
  %.0.i46 = phi i64 [ %63, %57 ], [ -1, %53 ]
  call void @llvm.lifetime.end.p0(i64 16, ptr nonnull %7) #10
  br label %64

64:                                               ; preds = %Abc_Clock.exit43, %Abc_Clock.exit47, %Abc_Clock.exit45
  %.0.i42.sink = phi i64 [ %.0.i42, %Abc_Clock.exit43 ], [ %.0.i46, %Abc_Clock.exit47 ], [ %.0.i44, %Abc_Clock.exit45 ]
  %65 = add i64 %.0.i.neg, %.0.i42.sink
  %66 = sitofp i64 %65 to double
  %67 = fdiv double %66, 1.000000e+06
  call void (i32, ptr, ...) @Abc_Print(i32 poison, ptr noundef nonnull @.str.4, double noundef %67)
  %68 = load ptr, ptr @stdout, align 8, !tbaa !46
  %69 = call i32 @fflush(ptr noundef %68)
  ret i32 %.027
}